target datalayout = "e-m:e-p270:32:32-p271:32:32-p272:64:64-i64:64-i128:128-f80:128-n8:16:32:64-S128"
target triple = "x86_64-pc-linux-gnu"

%struct._lv_freetype_outline_node_t = type { i32, ptr }
%struct._lv_freetype_font_dsc_t = type { i32, %struct._lv_font_t, i32, i32, i32, ptr, ptr, ptr, ptr }
%struct._lv_font_t = type { ptr, ptr, ptr, i32, i32, i8, i8, i8, ptr, ptr, ptr }
%struct._lv_freetype_cache_node_t = type { ptr, i32, i32, i32, ptr, i32, ptr, ptr }
%struct.lv_font_glyph_dsc_t = type { ptr, i16, i16, i16, i16, i16, i32, i8, %union.anon, ptr }
%union.anon = type { ptr }

; Function Attrs: nounwind uwtable
define internal ptr @lv_freetype_outline_lookup(ptr noundef %0, i32 noundef %1) #0 {
  %3 = alloca ptr, align 8
  %4 = alloca ptr, align 8
  %5 = alloca i32, align 4
  %6 = alloca ptr, align 8
  %7 = alloca %struct._lv_freetype_outline_node_t, align 8
  %8 = alloca ptr, align 8
  %9 = alloca i32, align 4
  store ptr %0, ptr %4, align 8, !tbaa !14
  store i32 %1, ptr %5, align 4, !tbaa !3
  call void @llvm.lifetime.start.p0(i64 8, ptr %6) #5
  %10 = load ptr, ptr %4, align 8, !tbaa !14
  %11 = getelementptr inbounds nuw %struct._lv_freetype_font_dsc_t, ptr %10, i32 0, i32 6
  %12 = load ptr, ptr %11, align 8, !tbaa !16
  store ptr %12, ptr %6, align 8, !tbaa !108
  call void @llvm.lifetime.start.p0(i64 16, ptr %7) #5
  %13 = load i32, ptr %5, align 4, !tbaa !3
  %14 = getelementptr inbounds nuw %struct._lv_freetype_outline_node_t, ptr %7, i32 0, i32 0
  store i32 %13, ptr %14, align 8, !tbaa !12
  call void @llvm.lifetime.start.p0(i64 8, ptr %8) #5
  %15 = load ptr, ptr %6, align 8, !tbaa !108
  %16 = getelementptr inbounds nuw %struct._lv_freetype_cache_node_t, ptr %15, i32 0, i32 7
  %17 = load ptr, ptr %16, align 8, !tbaa !46
  %18 = load ptr, ptr %4, align 8, !tbaa !14
  %19 = call ptr @lv_cache_acquire_or_create(ptr noundef %17, ptr noundef %7, ptr noundef %18)
  store ptr %19, ptr %8, align 8, !tbaa !44
  %20 = load ptr, ptr %8, align 8, !tbaa !44
  %21 = icmp ne ptr %20, null
  br i1 %21, label %26, label %22

22:                                               ; preds = %2
  br label %23

23:                                               ; preds = %22
  br label %24

24:                                               ; preds = %23
  br label %25

25:                                               ; preds = %24
  store ptr null, ptr %3, align 8
  store i32 1, ptr %9, align 4
  br label %28

26:                                               ; preds = %2
  %27 = load ptr, ptr %8, align 8, !tbaa !44
  store ptr %27, ptr %3, align 8
  store i32 1, ptr %9, align 4
  br label %28

28:                                               ; preds = %26, %25
  call void @llvm.lifetime.end.p0(i64 8, ptr %8) #5
  call void @llvm.lifetime.end.p0(i64 16, ptr %7) #5
  call void @llvm.lifetime.end.p0(i64 8, ptr %6) #5
  %29 = load ptr, ptr %3, align 8
  ret ptr %29
}

; Function Attrs: nounwind uwtable
define internal ptr @freetype_get_glyph_bitmap_cb(ptr noundef %0, ptr noundef %1) #0 {
  %3 = alloca ptr, align 8
  %4 = alloca ptr, align 8
  %5 = alloca ptr, align 8
  %6 = alloca ptr, align 8
  %7 = alloca ptr, align 8
  %8 = alloca ptr, align 8
  %9 = alloca i32, align 4
  %10 = alloca ptr, align 8
  store ptr %0, ptr %4, align 8, !tbaa !30
  store ptr %1, ptr %5, align 8, !tbaa !36
  call void @llvm.lifetime.start.p0(i64 8, ptr %6) #5
  %11 = load ptr, ptr %4, align 8, !tbaa !30
  %12 = getelementptr inbounds nuw %struct.lv_font_glyph_dsc_t, ptr %11, i32 0, i32 0
  %13 = load ptr, ptr %12, align 8, !tbaa !38
  store ptr %13, ptr %6, align 8, !tbaa !41
  call void @llvm.lifetime.start.p0(i64 8, ptr %7) #5
  %14 = load ptr, ptr %6, align 8, !tbaa !41
  %15 = getelementptr inbounds nuw %struct._lv_font_t, ptr %14, i32 0, i32 8
  %16 = load ptr, ptr %15, align 8, !tbaa !42
  store ptr %16, ptr %7, align 8, !tbaa !14
  br label %17

17:                                               ; preds = %2
  br label %18

18:                                               ; preds = %17
  %19 = load ptr, ptr %7, align 8, !tbaa !14
  %20 = icmp ne ptr %19, null
  br i1 %20, label %27, label %21

21:                                               ; preds = %18
  br label %22

22:                                               ; preds = %21
  br label %23

23:                                               ; preds = %22
  br label %24

24:                                               ; preds = %23
  br label %25

25:                                               ; preds = %26, %24
  br label %26

26:                                               ; preds = %25
  br label %25

27:                                               ; preds = %18
  br label %28

28:                                               ; preds = %27
  br label %29

29:                                               ; preds = %28
  br label %30

30:                                               ; preds = %29
  %31 = load ptr, ptr %7, align 8, !tbaa !14
  %32 = getelementptr inbounds nuw %struct._lv_freetype_font_dsc_t, ptr %31, i32 0, i32 0
  %33 = load i32, ptr %32, align 8, !tbaa !33
  %34 = icmp eq i32 %33, 1600079444
  br i1 %34, label %41, label %35

35:                                               ; preds = %30
  br label %36

36:                                               ; preds = %35
  br label %37

37:                                               ; preds = %36
  br label %38

38:                                               ; preds = %37
  br label %39

39:                                               ; preds = %40, %38
  br label %40

40:                                               ; preds = %39
  br label %39

41:                                               ; preds = %30
  br label %42

42:                                               ; preds = %41
  br label %43

43:                                               ; preds = %42
  br label %44

44:                                               ; preds = %43
  br label %45

45:                                               ; preds = %44
  call void @llvm.lifetime.start.p0(i64 8, ptr %8) #5
  %46 = load ptr, ptr %7, align 8, !tbaa !14
  %47 = load ptr, ptr %4, align 8, !tbaa !30
  %48 = getelementptr inbounds nuw %struct.lv_font_glyph_dsc_t, ptr %47, i32 0, i32 8
  %49 = load i32, ptr %48, align 8, !tbaa !43
  %50 = call ptr @lv_freetype_outline_lookup(ptr noundef %46, i32 noundef %49)
  store ptr %50, ptr %8, align 8, !tbaa !44
  %51 = load ptr, ptr %8, align 8, !tbaa !44
  %52 = icmp eq ptr %51, null
  br i1 %52, label %53, label %54

53:                                               ; preds = %45
  store ptr null, ptr %3, align 8
  store i32 1, ptr %9, align 4
  br label %69

54:                                               ; preds = %45
  call void @llvm.lifetime.start.p0(i64 8, ptr %10) #5
  %55 = load ptr, ptr %8, align 8, !tbaa !44
  %56 = call ptr @lv_cache_entry_get_data(ptr noundef %55)
  store ptr %56, ptr %10, align 8, !tbaa !10
  %57 = load ptr, ptr %8, align 8, !tbaa !44
  %58 = load ptr, ptr %4, align 8, !tbaa !30
  %59 = getelementptr inbounds nuw %struct.lv_font_glyph_dsc_t, ptr %58, i32 0, i32 9
  store ptr %57, ptr %59, align 8, !tbaa !45
  %60 = load ptr, ptr %10, align 8, !tbaa !10
  %61 = icmp ne ptr %60, null
  br i1 %61, label %62, label %66

62:                                               ; preds = %54
  %63 = load ptr, ptr %10, align 8, !tbaa !10
  %64 = getelementptr inbounds nuw %struct._lv_freetype_outline_node_t, ptr %63, i32 0, i32 1
  %65 = load ptr, ptr %64, align 8, !tbaa !31
  br label %67

66:                                               ; preds = %54
  br label %67

67:                                               ; preds = %66, %62
  %68 = phi ptr [ %65, %62 ], [ null, %66 ]
  store ptr %68, ptr %3, align 8
  store i32 1, ptr %9, align 4
  call void @llvm.lifetime.end.p0(i64 8, ptr %10) #5
  br label %69

69:                                               ; preds = %67, %53
  call void @llvm.lifetime.end.p0(i64 8, ptr %8) #5
  call void @llvm.lifetime.end.p0(i64 8, ptr %7) #5
  call void @llvm.lifetime.end.p0(i64 8, ptr %6) #5
  %70 = load ptr, ptr %3, align 8
  ret ptr %70
}