; Function Attrs: nounwind uwtable
define internal ptr @freetype_get_glyph_bitmap_cb(ptr noundef captures(none) %0, ptr readnone captures(none) %1) #0 {
  %3 = alloca %struct._lv_freetype_outline_node_t, align 8
  %4 = load ptr, ptr %0, align 8, !tbaa !75
  %5 = getelementptr inbounds nuw i8, ptr %4, i64 40
  %6 = load ptr, ptr %5, align 8, !tbaa !77
  %.not = icmp eq ptr %6, null
  br i1 %.not, label %.preheader, label %7

.preheader:                                       ; preds = %2, %.preheader
  br label %.preheader

7:                                                ; preds = %2
  %8 = load i32, ptr %6, align 8, !tbaa !72
  %9 = icmp eq i32 %8, 1600079444
  br i1 %9, label %10, label %.preheader17

.preheader17:                                     ; preds = %7, %.preheader17
  br label %.preheader17

10:                                               ; preds = %7
  %11 = getelementptr inbounds nuw i8, ptr %0, i64 32
  %12 = load i32, ptr %11, align 8, !tbaa !68
  %13 = getelementptr inbounds nuw i8, ptr %6, i64 96
  %14 = load ptr, ptr %13, align 8, !tbaa !16
  call void @llvm.lifetime.start.p0(i64 16, ptr nonnull %3) #9
  store i32 %12, ptr %3, align 8, !tbaa !3
  %15 = getelementptr inbounds nuw i8, ptr %14, i64 48
  %16 = load ptr, ptr %15, align 8, !tbaa !78
  %17 = call ptr @lv_cache_acquire_or_create(ptr noundef %16, ptr noundef nonnull %3, ptr noundef nonnull %6) #9
  call void @llvm.lifetime.end.p0(i64 16, ptr nonnull %3) #9
  %18 = icmp eq ptr %17, null
  br i1 %18, label %25, label %19

19:                                               ; preds = %10
  %20 = call ptr @lv_cache_entry_get_data(ptr noundef nonnull %17) #9
  %21 = getelementptr inbounds nuw i8, ptr %0, i64 40
  store ptr %17, ptr %21, align 8, !tbaa !79
  %.not16 = icmp eq ptr %20, null
  br i1 %.not16, label %25, label %22

22:                                               ; preds = %19
  %23 = getelementptr inbounds nuw i8, ptr %20, i64 8
  %24 = load ptr, ptr %23, align 8, !tbaa !71
  br label %25

25:                                               ; preds = %22, %19, %10
  %.0 = phi ptr [ null, %10 ], [ %24, %22 ], [ null, %19 ]
  ret ptr %.0
}